0000000080000000 <.text.boot>:
    80000000:	00001117          	auipc	sp,0x1
    80000004:	62810113          	addi	sp,sp,1576 # 0x80001628
    80000008:	00000097          	auipc	ra,0x0
    8000000c:	02e080e7          	jalr	46(ra) # 0x80000036
    80000010:	a001                	j	0x80000010

Disassembly of section .text.unlikely._ZN4core9panicking9panic_fmt17h6b34329394ab4351E:

0000000080000012 <.text.unlikely._ZN4core9panicking9panic_fmt17h6b34329394ab4351E>:
    80000012:	1141                	addi	sp,sp,-16
    80000014:	e406                	sd	ra,8(sp)
    80000016:	e022                	sd	s0,0(sp)
    80000018:	0800                	addi	s0,sp,16
    8000001a:	7fffc537          	lui	a0,0x7fffc
    8000001e:	4585                	li	a1,1
    80000020:	00b50023          	sb	a1,0(a0) # 0x7fffc000
    80000024:	a001                	j	0x80000024

Disassembly of section .text.unlikely._ZN4core6result13unwrap_failed17hb6ec8cc04f3e1c3aE:

0000000080000026 <.text.unlikely._ZN4core6result13unwrap_failed17hb6ec8cc04f3e1c3aE>:
    80000026:	1141                	addi	sp,sp,-16
    80000028:	e406                	sd	ra,8(sp)
    8000002a:	e022                	sd	s0,0(sp)
    8000002c:	0800                	addi	s0,sp,16
    8000002e:	00000097          	auipc	ra,0x0
    80000032:	fe4080e7          	jalr	-28(ra) # 0x80000012

Disassembly of section .text.main:

0000000080000036 <.text.main>:
    80000036:	7139                	addi	sp,sp,-64
    80000038:	fc06                	sd	ra,56(sp)
    8000003a:	f822                	sd	s0,48(sp)
    8000003c:	f426                	sd	s1,40(sp)
    8000003e:	f04a                	sd	s2,32(sp)
    80000040:	7fffa537          	lui	a0,0x7fffa
    80000044:	00050583          	lb	a1,0(a0) # 0x7fffa000
    80000048:	07f5f713          	andi	a4,a1,127
    8000004c:	0405d763          	bgez	a1,0x8000009a
    80000050:	00150583          	lb	a1,1(a0)
    80000054:	07f5f613          	andi	a2,a1,127
    80000058:	061e                	slli	a2,a2,0x7
    8000005a:	8f51                	or	a4,a4,a2
    8000005c:	0205df63          	bgez	a1,0x8000009a
    80000060:	2505                	addiw	a0,a0,1
    80000062:	00150583          	lb	a1,1(a0)
    80000066:	07f5f613          	andi	a2,a1,127
    8000006a:	063a                	slli	a2,a2,0xe
    8000006c:	8f51                	or	a4,a4,a2
    8000006e:	0205d663          	bgez	a1,0x8000009a
    80000072:	00250583          	lb	a1,2(a0)
    80000076:	07f5f613          	andi	a2,a1,127
    8000007a:	0656                	slli	a2,a2,0x15
    8000007c:	8f51                	or	a4,a4,a2
    8000007e:	0005de63          	bgez	a1,0x8000009a
    80000082:	00350503          	lb	a0,3(a0)
    80000086:	2a054263          	bltz	a0,0x8000032a
    8000008a:	0ff57513          	zext.b	a0,a0
    8000008e:	45c1                	li	a1,16
    80000090:	28b57d63          	bgeu	a0,a1,0x8000032a
    80000094:	01c5151b          	slliw	a0,a0,0x1c
    80000098:	8f49                	or	a4,a4,a0
    8000009a:	00000517          	auipc	a0,0x0
    8000009e:	000c86b7          	lui	a3,0xc8
    800000a2:	4905                	li	s2,1
    800000a4:	4621                	li	a2,8
    800000a6:	50650593          	addi	a1,a0,1286 # 0x800005a0
    800000aa:	c1e6851b          	addiw	a0,a3,-994 # 0xc7c1e
    800000ae:	4685                	li	a3,1
    800000b0:	00000073          	ecall
    800000b4:	02e97463          	bgeu	s2,a4,0x800000dc
    800000b8:	4601                	li	a2,0
    800000ba:	4681                	li	a3,0
    800000bc:	4581                	li	a1,0
    800000be:	177d                	addi	a4,a4,-1
    800000c0:	4785                	li	a5,1
    800000c2:	00c78433          	add	s0,a5,a2
    800000c6:	96ae                	add	a3,a3,a1
    800000c8:	00f434b3          	sltu	s1,s0,a5
    800000cc:	94b6                	add	s1,s1,a3
    800000ce:	377d                	addiw	a4,a4,-1
    800000d0:	863e                	mv	a2,a5
    800000d2:	86ae                	mv	a3,a1
    800000d4:	87a2                	mv	a5,s0
    800000d6:	85a6                	mv	a1,s1
    800000d8:	f76d                	bnez	a4,0x800000c2
    800000da:	a019                	j	0x800000e0
    800000dc:	4481                	li	s1,0
    800000de:	4405                	li	s0,1
    800000e0:	00000597          	auipc	a1,0x0
    800000e4:	4621                	li	a2,8
    800000e6:	4c058593          	addi	a1,a1,1216 # 0x800005a0
    800000ea:	4689                	li	a3,2
    800000ec:	00000073          	ecall
    800000f0:	00e10513          	addi	a0,sp,14
    800000f4:	4649                	li	a2,18
    800000f6:	4581                	li	a1,0
    800000f8:	00000097          	auipc	ra,0x0
    800000fc:	420080e7          	jalr	1056(ra) # 0x80000518
    80000100:	00745513          	srli	a0,s0,0x7
    80000104:	03949593          	slli	a1,s1,0x39
    80000108:	8d4d                	or	a0,a0,a1
    8000010a:	0074d593          	srli	a1,s1,0x7
    8000010e:	8dc9                	or	a1,a1,a0
    80000110:	008106a3          	sb	s0,13(sp)
    80000114:	1e058763          	beqz	a1,0x80000302
    80000118:	08046593          	ori	a1,s0,128
    8000011c:	00e45613          	srli	a2,s0,0xe
    80000120:	03249693          	slli	a3,s1,0x32
    80000124:	00b106a3          	sb	a1,13(sp)
    80000128:	00a10723          	sb	a0,14(sp)
    8000012c:	00d665b3          	or	a1,a2,a3
    80000130:	00e4d613          	srli	a2,s1,0xe
    80000134:	8e4d                	or	a2,a2,a1
    80000136:	4909                	li	s2,2
    80000138:	1c060563          	beqz	a2,0x80000302
    8000013c:	08056613          	ori	a2,a0,128
    80000140:	01545513          	srli	a0,s0,0x15
    80000144:	02b49693          	slli	a3,s1,0x2b
    80000148:	8d55                	or	a0,a0,a3
    8000014a:	0154d693          	srli	a3,s1,0x15
    8000014e:	8ec9                	or	a3,a3,a0
    80000150:	00c10723          	sb	a2,14(sp)
    80000154:	00b107a3          	sb	a1,15(sp)
    80000158:	16068663          	beqz	a3,0x800002c4
    8000015c:	0805e613          	ori	a2,a1,128
    80000160:	01c45593          	srli	a1,s0,0x1c
    80000164:	02449693          	slli	a3,s1,0x24
    80000168:	8dd5                	or	a1,a1,a3
    8000016a:	01c4d693          	srli	a3,s1,0x1c
    8000016e:	8ecd                	or	a3,a3,a1
    80000170:	00c107a3          	sb	a2,15(sp)
    80000174:	00a10823          	sb	a0,16(sp)
    80000178:	14068863          	beqz	a3,0x800002c8
    8000017c:	08056613          	ori	a2,a0,128
    80000180:	02345513          	srli	a0,s0,0x23
    80000184:	01d49693          	slli	a3,s1,0x1d
    80000188:	8d55                	or	a0,a0,a3
    8000018a:	0234d693          	srli	a3,s1,0x23
    8000018e:	8ec9                	or	a3,a3,a0
    80000190:	00c10823          	sb	a2,16(sp)
    80000194:	00b108a3          	sb	a1,17(sp)
    80000198:	12068a63          	beqz	a3,0x800002cc
    8000019c:	0805e613          	ori	a2,a1,128
    800001a0:	02a45593          	srli	a1,s0,0x2a
    800001a4:	01649693          	slli	a3,s1,0x16
    800001a8:	8dd5                	or	a1,a1,a3
    800001aa:	02a4d693          	srli	a3,s1,0x2a
    800001ae:	8ecd                	or	a3,a3,a1
    800001b0:	00c108a3          	sb	a2,17(sp)
    800001b4:	00a10923          	sb	a0,18(sp)
    800001b8:	10068c63          	beqz	a3,0x800002d0
    800001bc:	08056613          	ori	a2,a0,128
    800001c0:	03145513          	srli	a0,s0,0x31
    800001c4:	00f49693          	slli	a3,s1,0xf
    800001c8:	8d55                	or	a0,a0,a3
    800001ca:	0314d693          	srli	a3,s1,0x31
    800001ce:	8ec9                	or	a3,a3,a0
    800001d0:	00c10923          	sb	a2,18(sp)
    800001d4:	00b109a3          	sb	a1,19(sp)
    800001d8:	cef5                	beqz	a3,0x800002d4
    800001da:	0805e613          	ori	a2,a1,128
    800001de:	03845593          	srli	a1,s0,0x38
    800001e2:	00849693          	slli	a3,s1,0x8
    800001e6:	8dd5                	or	a1,a1,a3
    800001e8:	0384d693          	srli	a3,s1,0x38
    800001ec:	8ecd                	or	a3,a3,a1
    800001ee:	00c109a3          	sb	a2,19(sp)
    800001f2:	00a10a23          	sb	a0,20(sp)
    800001f6:	c2ed                	beqz	a3,0x800002d8
    800001f8:	08056613          	ori	a2,a0,128
    800001fc:	907d                	srli	s0,s0,0x3f
    800001fe:	00149513          	slli	a0,s1,0x1
    80000202:	8d41                	or	a0,a0,s0
    80000204:	03f4d693          	srli	a3,s1,0x3f
    80000208:	8ec9                	or	a3,a3,a0
    8000020a:	00c10a23          	sb	a2,20(sp)
    8000020e:	00b10aa3          	sb	a1,21(sp)
    80000212:	c6e9                	beqz	a3,0x800002dc
    80000214:	0805e613          	ori	a2,a1,128
    80000218:	0064d593          	srli	a1,s1,0x6
    8000021c:	00c10aa3          	sb	a2,21(sp)
    80000220:	00a10b23          	sb	a0,22(sp)
    80000224:	cdd5                	beqz	a1,0x800002e0
    80000226:	08056613          	ori	a2,a0,128
    8000022a:	00d4d513          	srli	a0,s1,0xd
    8000022e:	00c10b23          	sb	a2,22(sp)
    80000232:	00b10ba3          	sb	a1,23(sp)
    80000236:	c55d                	beqz	a0,0x800002e4
    80000238:	0805e613          	ori	a2,a1,128
    8000023c:	0144d593          	srli	a1,s1,0x14
    80000240:	00c10ba3          	sb	a2,23(sp)
    80000244:	00a10c23          	sb	a0,24(sp)
    80000248:	c1c5                	beqz	a1,0x800002e8
    8000024a:	08056613          	ori	a2,a0,128
    8000024e:	01b4d513          	srli	a0,s1,0x1b
    80000252:	00c10c23          	sb	a2,24(sp)
    80000256:	00b10ca3          	sb	a1,25(sp)
    8000025a:	c949                	beqz	a0,0x800002ec
    8000025c:	0805e613          	ori	a2,a1,128
    80000260:	0224d593          	srli	a1,s1,0x22
    80000264:	00c10ca3          	sb	a2,25(sp)
    80000268:	00a10d23          	sb	a0,26(sp)
    8000026c:	c1d1                	beqz	a1,0x800002f0
    8000026e:	08056613          	ori	a2,a0,128
    80000272:	0294d513          	srli	a0,s1,0x29
    80000276:	00c10d23          	sb	a2,26(sp)
    8000027a:	00b10da3          	sb	a1,27(sp)
    8000027e:	c93d                	beqz	a0,0x800002f4
    80000280:	0805e613          	ori	a2,a1,128
    80000284:	0304d593          	srli	a1,s1,0x30
    80000288:	00c10da3          	sb	a2,27(sp)
    8000028c:	00a10e23          	sb	a0,28(sp)
    80000290:	c5a5                	beqz	a1,0x800002f8
    80000292:	08056613          	ori	a2,a0,128
    80000296:	0374d513          	srli	a0,s1,0x37
    8000029a:	00c10e23          	sb	a2,28(sp)
    8000029e:	00b10ea3          	sb	a1,29(sp)
    800002a2:	cd29                	beqz	a0,0x800002fc
    800002a4:	0805e593          	ori	a1,a1,128
    800002a8:	90f9                	srli	s1,s1,0x3e
    800002aa:	00b10ea3          	sb	a1,29(sp)
    800002ae:	00a10f23          	sb	a0,30(sp)
    800002b2:	c4b9                	beqz	s1,0x80000300
    800002b4:	08056513          	ori	a0,a0,128
    800002b8:	00a10f23          	sb	a0,30(sp)
    800002bc:	00910fa3          	sb	s1,31(sp)
    800002c0:	494d                	li	s2,19
    800002c2:	a081                	j	0x80000302
    800002c4:	490d                	li	s2,3
    800002c6:	a835                	j	0x80000302
    800002c8:	4911                	li	s2,4
    800002ca:	a825                	j	0x80000302
    800002cc:	4915                	li	s2,5
    800002ce:	a815                	j	0x80000302
    800002d0:	4919                	li	s2,6
    800002d2:	a805                	j	0x80000302
    800002d4:	491d                	li	s2,7
    800002d6:	a035                	j	0x80000302
    800002d8:	4921                	li	s2,8
    800002da:	a025                	j	0x80000302
    800002dc:	4925                	li	s2,9
    800002de:	a015                	j	0x80000302
    800002e0:	4929                	li	s2,10
    800002e2:	a005                	j	0x80000302
    800002e4:	492d                	li	s2,11
    800002e6:	a831                	j	0x80000302
    800002e8:	4931                	li	s2,12
    800002ea:	a821                	j	0x80000302
    800002ec:	4935                	li	s2,13
    800002ee:	a811                	j	0x80000302
    800002f0:	4939                	li	s2,14
    800002f2:	a801                	j	0x80000302
    800002f4:	493d                	li	s2,15
    800002f6:	a031                	j	0x80000302
    800002f8:	4941                	li	s2,16
    800002fa:	a021                	j	0x80000302
    800002fc:	4945                	li	s2,17
    800002fe:	a011                	j	0x80000302
    80000300:	4949                	li	s2,18
    80000302:	7fffb537          	lui	a0,0x7fffb
    80000306:	00d10593          	addi	a1,sp,13
    8000030a:	864a                	mv	a2,s2
    8000030c:	00000097          	auipc	ra,0x0
    80000310:	026080e7          	jalr	38(ra) # 0x80000332
    80000314:	7fffc537          	lui	a0,0x7fffc
    80000318:	4585                	li	a1,1
    8000031a:	00b50423          	sb	a1,8(a0) # 0x7fffc008
    8000031e:	70e2                	ld	ra,56(sp)
    80000320:	7442                	ld	s0,48(sp)
    80000322:	74a2                	ld	s1,40(sp)
    80000324:	7902                	ld	s2,32(sp)
    80000326:	6121                	addi	sp,sp,64
    80000328:	8082                	ret
    8000032a:	00000097          	auipc	ra,0x0
    8000032e:	cfc080e7          	jalr	-772(ra) # 0x80000026

Disassembly of section .text.memcpy:

0000000080000332 <.text.memcpy>:
    80000332:	1141                	addi	sp,sp,-16
    80000334:	e406                	sd	ra,8(sp)
    80000336:	e022                	sd	s0,0(sp)
    80000338:	0800                	addi	s0,sp,16
    8000033a:	60a2                	ld	ra,8(sp)
    8000033c:	6402                	ld	s0,0(sp)
    8000033e:	0141                	addi	sp,sp,16
    80000340:	00000317          	auipc	t1,0x0
    80000344:	00830067          	jr	8(t1) # 0x80000348

Disassembly of section .text._ZN17compiler_builtins3mem6memcpy17hb9476cf9b0fe9797E:

0000000080000348 <.text._ZN17compiler_builtins3mem6memcpy17hb9476cf9b0fe9797E>:
    80000348:	1101                	addi	sp,sp,-32
    8000034a:	ec06                	sd	ra,24(sp)
    8000034c:	e822                	sd	s0,16(sp)
    8000034e:	e426                	sd	s1,8(sp)
    80000350:	1000                	addi	s0,sp,32
    80000352:	46c1                	li	a3,16
    80000354:	06d66263          	bltu	a2,a3,0x800003b8
    80000358:	40a006bb          	negw	a3,a0
    8000035c:	0076f813          	andi	a6,a3,7
    80000360:	01050fb3          	add	t6,a0,a6
    80000364:	01f57d63          	bgeu	a0,t6,0x8000037e
    80000368:	8742                	mv	a4,a6
    8000036a:	86aa                	mv	a3,a0
    8000036c:	87ae                	mv	a5,a1
    8000036e:	0007c883          	lbu	a7,0(a5)
    80000372:	177d                	addi	a4,a4,-1
    80000374:	01168023          	sb	a7,0(a3)
    80000378:	0685                	addi	a3,a3,1
    8000037a:	0785                	addi	a5,a5,1
    8000037c:	fb6d                	bnez	a4,0x8000036e
    8000037e:	95c2                	add	a1,a1,a6
    80000380:	410604b3          	sub	s1,a2,a6
    80000384:	ff84f713          	andi	a4,s1,-8
    80000388:	0075f813          	andi	a6,a1,7
    8000038c:	00ef86b3          	add	a3,t6,a4
    80000390:	04081663          	bnez	a6,0x800003dc
    80000394:	00dffa63          	bgeu	t6,a3,0x800003a8
    80000398:	87ae                	mv	a5,a1
    8000039a:	6390                	ld	a2,0(a5)
    8000039c:	00cfb023          	sd	a2,0(t6)
    800003a0:	0fa1                	addi	t6,t6,8
    800003a2:	07a1                	addi	a5,a5,8
    800003a4:	fedfebe3          	bltu	t6,a3,0x8000039a
    800003a8:	95ba                	add	a1,a1,a4
    800003aa:	0074f613          	andi	a2,s1,7
    800003ae:	00c68733          	add	a4,a3,a2
    800003b2:	00e6e863          	bltu	a3,a4,0x800003c2
    800003b6:	a831                	j	0x800003d2
    800003b8:	86aa                	mv	a3,a0
    800003ba:	00c50733          	add	a4,a0,a2
    800003be:	00e57a63          	bgeu	a0,a4,0x800003d2
    800003c2:	0005c703          	lbu	a4,0(a1)
    800003c6:	167d                	addi	a2,a2,-1
    800003c8:	00e68023          	sb	a4,0(a3)
    800003cc:	0685                	addi	a3,a3,1
    800003ce:	0585                	addi	a1,a1,1
    800003d0:	fa6d                	bnez	a2,0x800003c2
    800003d2:	60e2                	ld	ra,24(sp)
    800003d4:	6442                	ld	s0,16(sp)
    800003d6:	64a2                	ld	s1,8(sp)
    800003d8:	6105                	addi	sp,sp,32
    800003da:	8082                	ret
    800003dc:	4881                	li	a7,0
    800003de:	4621                	li	a2,8
    800003e0:	fe043023          	sd	zero,-32(s0)
    800003e4:	41060333          	sub	t1,a2,a6
    800003e8:	fe040613          	addi	a2,s0,-32
    800003ec:	00137793          	andi	a5,t1,1
    800003f0:	010662b3          	or	t0,a2,a6
    800003f4:	ebb1                	bnez	a5,0x80000448
    800003f6:	00237613          	andi	a2,t1,2
    800003fa:	ee39                	bnez	a2,0x80000458
    800003fc:	00437613          	andi	a2,t1,4
    80000400:	ea25                	bnez	a2,0x80000470
    80000402:	fe043e83          	ld	t4,-32(s0)
    80000406:	00381893          	slli	a7,a6,0x3
    8000040a:	008f8613          	addi	a2,t6,8
    8000040e:	41058f33          	sub	t5,a1,a6
    80000412:	06d67f63          	bgeu	a2,a3,0x80000490
    80000416:	4110063b          	negw	a2,a7
    8000041a:	03867393          	andi	t2,a2,56
    8000041e:	008f3283          	ld	t0,8(t5)
    80000422:	008f0e13          	addi	t3,t5,8
    80000426:	011ed633          	srl	a2,t4,a7
    8000042a:	008f8313          	addi	t1,t6,8
    8000042e:	007297b3          	sll	a5,t0,t2
    80000432:	8e5d                	or	a2,a2,a5
    80000434:	010f8793          	addi	a5,t6,16
    80000438:	00cfb023          	sd	a2,0(t6)
    8000043c:	8f9a                	mv	t6,t1
    8000043e:	8f72                	mv	t5,t3
    80000440:	8e96                	mv	t4,t0
    80000442:	fcd7eee3          	bltu	a5,a3,0x8000041e
    80000446:	a881                	j	0x80000496
    80000448:	0005c603          	lbu	a2,0(a1)
    8000044c:	00c28023          	sb	a2,0(t0)
    80000450:	4885                	li	a7,1
    80000452:	00237613          	andi	a2,t1,2
    80000456:	d25d                	beqz	a2,0x800003fc
    80000458:	01158633          	add	a2,a1,a7
    8000045c:	00061603          	lh	a2,0(a2)
    80000460:	011287b3          	add	a5,t0,a7
    80000464:	00c79023          	sh	a2,0(a5)
    80000468:	0889                	addi	a7,a7,2
    8000046a:	00437613          	andi	a2,t1,4
    8000046e:	da51                	beqz	a2,0x80000402
    80000470:	01158633          	add	a2,a1,a7
    80000474:	4210                	lw	a2,0(a2)
    80000476:	9896                	add	a7,a7,t0
    80000478:	00c8a023          	sw	a2,0(a7)
    8000047c:	fe043e83          	ld	t4,-32(s0)
    80000480:	00381893          	slli	a7,a6,0x3
    80000484:	008f8613          	addi	a2,t6,8
    80000488:	41058f33          	sub	t5,a1,a6
    8000048c:	f8d665e3          	bltu	a2,a3,0x80000416
    80000490:	82f6                	mv	t0,t4
    80000492:	8e7a                	mv	t3,t5
    80000494:	837e                	mv	t1,t6
    80000496:	4781                	li	a5,0
    80000498:	008e0393          	addi	t2,t3,8
    8000049c:	4611                	li	a2,4
    8000049e:	fe043023          	sd	zero,-32(s0)
    800004a2:	04c87563          	bgeu	a6,a2,0x800004ec
    800004a6:	0025f613          	andi	a2,a1,2
    800004aa:	ea29                	bnez	a2,0x800004fc
    800004ac:	0015f613          	andi	a2,a1,1
    800004b0:	ca09                	beqz	a2,0x800004c2
    800004b2:	93be                	add	t2,t2,a5
    800004b4:	0003c803          	lbu	a6,0(t2)
    800004b8:	fe040613          	addi	a2,s0,-32
    800004bc:	8e5d                	or	a2,a2,a5
    800004be:	01060023          	sb	a6,0(a2)
    800004c2:	fe043803          	ld	a6,-32(s0)
    800004c6:	0112d7b3          	srl	a5,t0,a7
    800004ca:	4110063b          	negw	a2,a7
    800004ce:	03867613          	andi	a2,a2,56
    800004d2:	00c81633          	sll	a2,a6,a2
    800004d6:	8e5d                	or	a2,a2,a5
    800004d8:	00c33023          	sd	a2,0(t1)
    800004dc:	95ba                	add	a1,a1,a4
    800004de:	0074f613          	andi	a2,s1,7
    800004e2:	00c68733          	add	a4,a3,a2
    800004e6:	ece6eee3          	bltu	a3,a4,0x800003c2
    800004ea:	b5e5                	j	0x800003d2
    800004ec:	0003a603          	lw	a2,0(t2)
    800004f0:	fec42023          	sw	a2,-32(s0)
    800004f4:	4791                	li	a5,4
    800004f6:	0025f613          	andi	a2,a1,2
    800004fa:	da4d                	beqz	a2,0x800004ac
    800004fc:	00f38633          	add	a2,t2,a5
    80000500:	00061803          	lh	a6,0(a2)
    80000504:	fe040613          	addi	a2,s0,-32
    80000508:	8e5d                	or	a2,a2,a5
    8000050a:	01061023          	sh	a6,0(a2)
    8000050e:	0789                	addi	a5,a5,2
    80000510:	0015f613          	andi	a2,a1,1
    80000514:	fe59                	bnez	a2,0x800004b2
    80000516:	b775                	j	0x800004c2

Disassembly of section .text.memset:

0000000080000518 <.text.memset>:
    80000518:	1141                	addi	sp,sp,-16
    8000051a:	e406                	sd	ra,8(sp)
    8000051c:	e022                	sd	s0,0(sp)
    8000051e:	0800                	addi	s0,sp,16
    80000520:	46c1                	li	a3,16
    80000522:	06d66763          	bltu	a2,a3,0x80000590
    80000526:	40a006bb          	negw	a3,a0
    8000052a:	0076f813          	andi	a6,a3,7
    8000052e:	01050733          	add	a4,a0,a6
    80000532:	00e57963          	bgeu	a0,a4,0x80000544
    80000536:	87c2                	mv	a5,a6
    80000538:	86aa                	mv	a3,a0
    8000053a:	00b68023          	sb	a1,0(a3)
    8000053e:	17fd                	addi	a5,a5,-1
    80000540:	0685                	addi	a3,a3,1
    80000542:	ffe5                	bnez	a5,0x8000053a
    80000544:	41060633          	sub	a2,a2,a6
    80000548:	ff867693          	andi	a3,a2,-8
    8000054c:	96ba                	add	a3,a3,a4
    8000054e:	02d77363          	bgeu	a4,a3,0x80000574
    80000552:	03859813          	slli	a6,a1,0x38
    80000556:	101017b7          	lui	a5,0x10101
    8000055a:	0792                	slli	a5,a5,0x4
    8000055c:	10078793          	addi	a5,a5,256 # 0x10101100
    80000560:	02f83833          	mulhu	a6,a6,a5
    80000564:	02081793          	slli	a5,a6,0x20
    80000568:	0107e7b3          	or	a5,a5,a6
    8000056c:	e31c                	sd	a5,0(a4)
    8000056e:	0721                	addi	a4,a4,8
    80000570:	fed76ee3          	bltu	a4,a3,0x8000056c
    80000574:	8a1d                	andi	a2,a2,7
    80000576:	00c68733          	add	a4,a3,a2
    8000057a:	00e6f763          	bgeu	a3,a4,0x80000588
    8000057e:	00b68023          	sb	a1,0(a3)
    80000582:	167d                	addi	a2,a2,-1
    80000584:	0685                	addi	a3,a3,1
    80000586:	fe65                	bnez	a2,0x8000057e
    80000588:	60a2                	ld	ra,8(sp)
    8000058a:	6402                	ld	s0,0(sp)
    8000058c:	0141                	addi	sp,sp,16
    8000058e:	8082                	ret
    80000590:	86aa                	mv	a3,a0
    80000592:	00c50733          	add	a4,a0,a2
    80000596:	fee564e3          	bltu	a0,a4,0x8000057e
    8000059a:	b7fd                	j	0x80000588
